target datalayout = "e-m:e-p270:32:32-p271:32:32-p272:64:64-i64:64-i128:128-f80:128-n8:16:32:64-S128"
target triple = "x86_64-pc-linux-gnu"

%struct.Msat_ClauseVec_t_ = type { ptr, i32, i32 }

; Function Attrs: nounwind uwtable
define ptr @Msat_ClauseVecAlloc(i32 noundef %0) #0 {
  %2 = alloca i32, align 4
  %3 = alloca ptr, align 8
  store i32 %0, ptr %2, align 4, !tbaa !3
  call void @llvm.lifetime.start.p0(i64 8, ptr %3) #5
  %4 = call noalias ptr @malloc(i64 noundef 16) #6
  store ptr %4, ptr %3, align 8, !tbaa !7
  %5 = load i32, ptr %2, align 4, !tbaa !3
  %6 = icmp sgt i32 %5, 0
  br i1 %6, label %7, label %11

7:                                                ; preds = %1
  %8 = load i32, ptr %2, align 4, !tbaa !3
  %9 = icmp slt i32 %8, 16
  br i1 %9, label %10, label %11

10:                                               ; preds = %7
  store i32 16, ptr %2, align 4, !tbaa !3
  br label %11

11:                                               ; preds = %10, %7, %1
  %12 = load ptr, ptr %3, align 8, !tbaa !7
  %13 = getelementptr inbounds nuw %struct.Msat_ClauseVec_t_, ptr %12, i32 0, i32 1
  store i32 0, ptr %13, align 8, !tbaa !10
  %14 = load i32, ptr %2, align 4, !tbaa !3
  %15 = load ptr, ptr %3, align 8, !tbaa !7
  %16 = getelementptr inbounds nuw %struct.Msat_ClauseVec_t_, ptr %15, i32 0, i32 2
  store i32 %14, ptr %16, align 4, !tbaa !13
  %17 = load ptr, ptr %3, align 8, !tbaa !7
  %18 = getelementptr inbounds nuw %struct.Msat_ClauseVec_t_, ptr %17, i32 0, i32 2
  %19 = load i32, ptr %18, align 4, !tbaa !13
  %20 = icmp ne i32 %19, 0
  br i1 %20, label %21, label %28

21:                                               ; preds = %11
  %22 = load ptr, ptr %3, align 8, !tbaa !7
  %23 = getelementptr inbounds nuw %struct.Msat_ClauseVec_t_, ptr %22, i32 0, i32 2
  %24 = load i32, ptr %23, align 4, !tbaa !13
  %25 = sext i32 %24 to i64
  %26 = mul i64 8, %25
  %27 = call noalias ptr @malloc(i64 noundef %26) #6
  br label %29

28:                                               ; preds = %11
  br label %29

29:                                               ; preds = %28, %21
  %30 = phi ptr [ %27, %21 ], [ null, %28 ]
  %31 = load ptr, ptr %3, align 8, !tbaa !7
  %32 = getelementptr inbounds nuw %struct.Msat_ClauseVec_t_, ptr %31, i32 0, i32 0
  store ptr %30, ptr %32, align 8, !tbaa !14
  %33 = load ptr, ptr %3, align 8, !tbaa !7
  call void @llvm.lifetime.end.p0(i64 8, ptr %3) #5
  ret ptr %33
}

; Function Attrs: nocallback nofree nosync nounwind willreturn memory(argmem: readwrite)
declare void @llvm.lifetime.start.p0(i64 immarg, ptr captures(none)) #1

; Function Attrs: nounwind allocsize(0)
declare noalias ptr @malloc(i64 noundef) #2

; Function Attrs: nocallback nofree nosync nounwind willreturn memory(argmem: readwrite)
declare void @llvm.lifetime.end.p0(i64 immarg, ptr captures(none)) #1

; Function Attrs: nounwind uwtable
define void @Msat_ClauseVecFree(ptr noundef %0) #0 {
  %2 = alloca ptr, align 8
  store ptr %0, ptr %2, align 8, !tbaa !7
  %3 = load ptr, ptr %2, align 8, !tbaa !7
  %4 = getelementptr inbounds nuw %struct.Msat_ClauseVec_t_, ptr %3, i32 0, i32 0
  %5 = load ptr, ptr %4, align 8, !tbaa !14
  %6 = icmp ne ptr %5, null
  br i1 %6, label %7, label %13

7:                                                ; preds = %1
  %8 = load ptr, ptr %2, align 8, !tbaa !7
  %9 = getelementptr inbounds nuw %struct.Msat_ClauseVec_t_, ptr %8, i32 0, i32 0
  %10 = load ptr, ptr %9, align 8, !tbaa !14
  call void @free(ptr noundef %10) #5
  %11 = load ptr, ptr %2, align 8, !tbaa !7
  %12 = getelementptr inbounds nuw %struct.Msat_ClauseVec_t_, ptr %11, i32 0, i32 0
  store ptr null, ptr %12, align 8, !tbaa !14
  br label %14

13:                                               ; preds = %1
  br label %14

14:                                               ; preds = %13, %7
  %15 = load ptr, ptr %2, align 8, !tbaa !7
  %16 = icmp ne ptr %15, null
  br i1 %16, label %17, label %19

17:                                               ; preds = %14
  %18 = load ptr, ptr %2, align 8, !tbaa !7
  call void @free(ptr noundef %18) #5
  store ptr null, ptr %2, align 8, !tbaa !7
  br label %20

19:                                               ; preds = %14
  br label %20

20:                                               ; preds = %19, %17
  ret void
}

; Function Attrs: nounwind
declare void @free(ptr noundef) #3

; Function Attrs: nounwind uwtable
define ptr @Msat_ClauseVecReadArray(ptr noundef %0) #0 {
  %2 = alloca ptr, align 8
  store ptr %0, ptr %2, align 8, !tbaa !7
  %3 = load ptr, ptr %2, align 8, !tbaa !7
  %4 = getelementptr inbounds nuw %struct.Msat_ClauseVec_t_, ptr %3, i32 0, i32 0
  %5 = load ptr, ptr %4, align 8, !tbaa !14
  ret ptr %5
}

; Function Attrs: nounwind uwtable
define i32 @Msat_ClauseVecReadSize(ptr noundef %0) #0 {
  %2 = alloca ptr, align 8
  store ptr %0, ptr %2, align 8, !tbaa !7
  %3 = load ptr, ptr %2, align 8, !tbaa !7
  %4 = getelementptr inbounds nuw %struct.Msat_ClauseVec_t_, ptr %3, i32 0, i32 1
  %5 = load i32, ptr %4, align 8, !tbaa !10
  ret i32 %5
}

; Function Attrs: nounwind uwtable
define void @Msat_ClauseVecGrow(ptr noundef %0, i32 noundef %1) #0 {
  %3 = alloca ptr, align 8
  %4 = alloca i32, align 4
  store ptr %0, ptr %3, align 8, !tbaa !7
  store i32 %1, ptr %4, align 4, !tbaa !3
  %5 = load ptr, ptr %3, align 8, !tbaa !7
  %6 = getelementptr inbounds nuw %struct.Msat_ClauseVec_t_, ptr %5, i32 0, i32 2
  %7 = load i32, ptr %6, align 4, !tbaa !13
  %8 = load i32, ptr %4, align 4, !tbaa !3
  %9 = icmp sge i32 %7, %8
  br i1 %9, label %10, label %11

10:                                               ; preds = %2
  br label %36

11:                                               ; preds = %2
  %12 = load ptr, ptr %3, align 8, !tbaa !7
  %13 = getelementptr inbounds nuw %struct.Msat_ClauseVec_t_, ptr %12, i32 0, i32 0
  %14 = load ptr, ptr %13, align 8, !tbaa !14
  %15 = icmp ne ptr %14, null
  br i1 %15, label %16, label %24

16:                                               ; preds = %11
  %17 = load ptr, ptr %3, align 8, !tbaa !7
  %18 = getelementptr inbounds nuw %struct.Msat_ClauseVec_t_, ptr %17, i32 0, i32 0
  %19 = load ptr, ptr %18, align 8, !tbaa !14
  %20 = load i32, ptr %4, align 4, !tbaa !3
  %21 = sext i32 %20 to i64
  %22 = mul i64 8, %21
  %23 = call ptr @realloc(ptr noundef %19, i64 noundef %22) #7
  br label %29

24:                                               ; preds = %11
  %25 = load i32, ptr %4, align 4, !tbaa !3
  %26 = sext i32 %25 to i64
  %27 = mul i64 8, %26
  %28 = call noalias ptr @malloc(i64 noundef %27) #6
  br label %29

29:                                               ; preds = %24, %16
  %30 = phi ptr [ %23, %16 ], [ %28, %24 ]
  %31 = load ptr, ptr %3, align 8, !tbaa !7
  %32 = getelementptr inbounds nuw %struct.Msat_ClauseVec_t_, ptr %31, i32 0, i32 0
  store ptr %30, ptr %32, align 8, !tbaa !14
  %33 = load i32, ptr %4, align 4, !tbaa !3
  %34 = load ptr, ptr %3, align 8, !tbaa !7
  %35 = getelementptr inbounds nuw %struct.Msat_ClauseVec_t_, ptr %34, i32 0, i32 2
  store i32 %33, ptr %35, align 4, !tbaa !13
  br label %36

36:                                               ; preds = %29, %10
  ret void
}

; Function Attrs: nounwind allocsize(1)
declare ptr @realloc(ptr noundef, i64 noundef) #4

; Function Attrs: nounwind uwtable
define void @Msat_ClauseVecShrink(ptr noundef %0, i32 noundef %1) #0 {
  %3 = alloca ptr, align 8
  %4 = alloca i32, align 4
  store ptr %0, ptr %3, align 8, !tbaa !7
  store i32 %1, ptr %4, align 4, !tbaa !3
  %5 = load i32, ptr %4, align 4, !tbaa !3
  %6 = load ptr, ptr %3, align 8, !tbaa !7
  %7 = getelementptr inbounds nuw %struct.Msat_ClauseVec_t_, ptr %6, i32 0, i32 1
  store i32 %5, ptr %7, align 8, !tbaa !10
  ret void
}

; Function Attrs: nounwind uwtable
define void @Msat_ClauseVecClear(ptr noundef %0) #0 {
  %2 = alloca ptr, align 8
  store ptr %0, ptr %2, align 8, !tbaa !7
  %3 = load ptr, ptr %2, align 8, !tbaa !7
  %4 = getelementptr inbounds nuw %struct.Msat_ClauseVec_t_, ptr %3, i32 0, i32 1
  store i32 0, ptr %4, align 8, !tbaa !10
  ret void
}

; Function Attrs: nounwind uwtable
define void @Msat_ClauseVecPush(ptr noundef %0, ptr noundef %1) #0 {
  %3 = alloca ptr, align 8
  %4 = alloca ptr, align 8
  store ptr %0, ptr %3, align 8, !tbaa !7
  store ptr %1, ptr %4, align 8, !tbaa !15
  %5 = load ptr, ptr %3, align 8, !tbaa !7
  %6 = getelementptr inbounds nuw %struct.Msat_ClauseVec_t_, ptr %5, i32 0, i32 1
  %7 = load i32, ptr %6, align 8, !tbaa !10
  %8 = load ptr, ptr %3, align 8, !tbaa !7
  %9 = getelementptr inbounds nuw %struct.Msat_ClauseVec_t_, ptr %8, i32 0, i32 2
  %10 = load i32, ptr %9, align 4, !tbaa !13
  %11 = icmp eq i32 %7, %10
  br i1 %11, label %12, label %26

12:                                               ; preds = %2
  %13 = load ptr, ptr %3, align 8, !tbaa !7
  %14 = getelementptr inbounds nuw %struct.Msat_ClauseVec_t_, ptr %13, i32 0, i32 2
  %15 = load i32, ptr %14, align 4, !tbaa !13
  %16 = icmp slt i32 %15, 16
  br i1 %16, label %17, label %19

17:                                               ; preds = %12
  %18 = load ptr, ptr %3, align 8, !tbaa !7
  call void @Msat_ClauseVecGrow(ptr noundef %18, i32 noundef 16)
  br label %25

19:                                               ; preds = %12
  %20 = load ptr, ptr %3, align 8, !tbaa !7
  %21 = load ptr, ptr %3, align 8, !tbaa !7
  %22 = getelementptr inbounds nuw %struct.Msat_ClauseVec_t_, ptr %21, i32 0, i32 2
  %23 = load i32, ptr %22, align 4, !tbaa !13
  %24 = mul nsw i32 2, %23
  call void @Msat_ClauseVecGrow(ptr noundef %20, i32 noundef %24)
  br label %25

25:                                               ; preds = %19, %17
  br label %26

26:                                               ; preds = %25, %2
  %27 = load ptr, ptr %4, align 8, !tbaa !15
  %28 = load ptr, ptr %3, align 8, !tbaa !7
  %29 = getelementptr inbounds nuw %struct.Msat_ClauseVec_t_, ptr %28, i32 0, i32 0
  %30 = load ptr, ptr %29, align 8, !tbaa !14
  %31 = load ptr, ptr %3, align 8, !tbaa !7
  %32 = getelementptr inbounds nuw %struct.Msat_ClauseVec_t_, ptr %31, i32 0, i32 1
  %33 = load i32, ptr %32, align 8, !tbaa !10
  %34 = add nsw i32 %33, 1
  store i32 %34, ptr %32, align 8, !tbaa !10
  %35 = sext i32 %33 to i64
  %36 = getelementptr inbounds ptr, ptr %30, i64 %35
  store ptr %27, ptr %36, align 8, !tbaa !15
  ret void
}

; Function Attrs: nounwind uwtable
define ptr @Msat_ClauseVecPop(ptr noundef %0) #0 {
  %2 = alloca ptr, align 8
  store ptr %0, ptr %2, align 8, !tbaa !7
  %3 = load ptr, ptr %2, align 8, !tbaa !7
  %4 = getelementptr inbounds nuw %struct.Msat_ClauseVec_t_, ptr %3, i32 0, i32 0
  %5 = load ptr, ptr %4, align 8, !tbaa !14
  %6 = load ptr, ptr %2, align 8, !tbaa !7
  %7 = getelementptr inbounds nuw %struct.Msat_ClauseVec_t_, ptr %6, i32 0, i32 1
  %8 = load i32, ptr %7, align 8, !tbaa !10
  %9 = add nsw i32 %8, -1
  store i32 %9, ptr %7, align 8, !tbaa !10
  %10 = sext i32 %9 to i64
  %11 = getelementptr inbounds ptr, ptr %5, i64 %10
  %12 = load ptr, ptr %11, align 8, !tbaa !15
  ret ptr %12
}

; Function Attrs: nounwind uwtable
define void @Msat_ClauseVecWriteEntry(ptr noundef %0, i32 noundef %1, ptr noundef %2) #0 {
  %4 = alloca ptr, align 8
  %5 = alloca i32, align 4
  %6 = alloca ptr, align 8
  store ptr %0, ptr %4, align 8, !tbaa !7
  store i32 %1, ptr %5, align 4, !tbaa !3
  store ptr %2, ptr %6, align 8, !tbaa !15
  %7 = load ptr, ptr %6, align 8, !tbaa !15
  %8 = load ptr, ptr %4, align 8, !tbaa !7
  %9 = getelementptr inbounds nuw %struct.Msat_ClauseVec_t_, ptr %8, i32 0, i32 0
  %10 = load ptr, ptr %9, align 8, !tbaa !14
  %11 = load i32, ptr %5, align 4, !tbaa !3
  %12 = sext i32 %11 to i64
  %13 = getelementptr inbounds ptr, ptr %10, i64 %12
  store ptr %7, ptr %13, align 8, !tbaa !15
  ret void
}

; Function Attrs: nounwind uwtable
define ptr @Msat_ClauseVecReadEntry(ptr noundef %0, i32 noundef %1) #0 {
  %3 = alloca ptr, align 8
  %4 = alloca i32, align 4
  store ptr %0, ptr %3, align 8, !tbaa !7
  store i32 %1, ptr %4, align 4, !tbaa !3
  %5 = load ptr, ptr %3, align 8, !tbaa !7
  %6 = getelementptr inbounds nuw %struct.Msat_ClauseVec_t_, ptr %5, i32 0, i32 0
  %7 = load ptr, ptr %6, align 8, !tbaa !14
  %8 = load i32, ptr %4, align 4, !tbaa !3
  %9 = sext i32 %8 to i64
  %10 = getelementptr inbounds ptr, ptr %7, i64 %9
  %11 = load ptr, ptr %10, align 8, !tbaa !15
  ret ptr %11
}


!llvm.module.flags = !{!0, !1, !2}

!0 = !{i32 1, !"wchar_size", i32 4}
!1 = !{i32 8, !"PIC Level", i32 2}
!2 = !{i32 7, !"uwtable", i32 2}
!3 = !{!4, !4, i64 0}
!4 = !{!"int", !5, i64 0}
!5 = !{!"omnipotent char", !6, i64 0}
!6 = !{!"Simple C/C++ TBAA"}
!7 = !{!8, !8, i64 0}
!8 = !{!"p1 _ZTS17Msat_ClauseVec_t_", !9, i64 0}
!9 = !{!"any pointer", !5, i64 0}
!10 = !{!11, !4, i64 8}
!11 = !{!"Msat_ClauseVec_t_", !12, i64 0, !4, i64 8, !4, i64 12}
!12 = !{!"p2 _ZTS14Msat_Clause_t_", !9, i64 0}
!13 = !{!11, !4, i64 12}
!14 = !{!11, !12, i64 0}
!15 = !{!16, !16, i64 0}
!16 = !{!"p1 _ZTS14Msat_Clause_t_", !9, i64 0}
