; ModuleID = 'bench/abc/original/msatClauseVec.ll'
source_filename = "bench/abc/original/msatClauseVec.ll"
target datalayout = "e-m:e-p270:32:32-p271:32:32-p272:64:64-i64:64-i128:128-f80:128-n8:16:32:64-S128"
target triple = "x86_64-pc-linux-gnu"

; Function Attrs: mustprogress nofree nounwind willreturn memory(write, argmem: none, inaccessiblemem: readwrite) uwtable
define noalias noundef ptr @Msat_ClauseVecAlloc(i32 noundef %0) local_unnamed_addr #0 {
  %2 = tail call noalias dereferenceable_or_null(16) ptr @malloc(i64 noundef 16) #10
  %3 = add i32 %0, -1
  %or.cond = icmp ult i32 %3, 15
  %spec.store.select = select i1 %or.cond, i32 16, i32 %0
  %4 = getelementptr inbounds nuw i8, ptr %2, i64 8
  store i32 0, ptr %4, align 8, !tbaa !3
  %5 = getelementptr inbounds nuw i8, ptr %2, i64 12
  store i32 %spec.store.select, ptr %5, align 4, !tbaa !10
  %.not = icmp eq i32 %spec.store.select, 0
  br i1 %.not, label %10, label %6

6:                                                ; preds = %1
  %7 = sext i32 %spec.store.select to i64
  %8 = shl nsw i64 %7, 3
  %9 = tail call noalias ptr @malloc(i64 noundef %8) #10
  br label %10

10:                                               ; preds = %1, %6
  %11 = phi ptr [ %9, %6 ], [ null, %1 ]
  store ptr %11, ptr %2, align 8, !tbaa !11
  ret ptr %2
}

; Function Attrs: mustprogress nofree nounwind willreturn allockind("alloc,uninitialized") allocsize(0) memory(inaccessiblemem: readwrite)
declare noalias noundef ptr @malloc(i64 noundef) local_unnamed_addr #1

; Function Attrs: mustprogress nounwind willreturn uwtable
define void @Msat_ClauseVecFree(ptr noundef captures(none) %0) local_unnamed_addr #2 {
  %2 = load ptr, ptr %0, align 8, !tbaa !11
  %.not = icmp eq ptr %2, null
  br i1 %.not, label %4, label %3

3:                                                ; preds = %1
  tail call void @free(ptr noundef nonnull %2) #11
  br label %4

4:                                                ; preds = %3, %1
  tail call void @free(ptr noundef nonnull %0) #11
  ret void
}

; Function Attrs: mustprogress nounwind willreturn allockind("free") memory(argmem: readwrite, inaccessiblemem: readwrite)
declare void @free(ptr allocptr noundef captures(none)) local_unnamed_addr #3

; Function Attrs: mustprogress nofree norecurse nosync nounwind willreturn memory(argmem: read) uwtable
define ptr @Msat_ClauseVecReadArray(ptr noundef readonly captures(none) %0) local_unnamed_addr #4 {
  %2 = load ptr, ptr %0, align 8, !tbaa !11
  ret ptr %2
}

; Function Attrs: mustprogress nofree norecurse nosync nounwind willreturn memory(argmem: read) uwtable
define i32 @Msat_ClauseVecReadSize(ptr noundef readonly captures(none) %0) local_unnamed_addr #4 {
  %2 = getelementptr inbounds nuw i8, ptr %0, i64 8
  %3 = load i32, ptr %2, align 8, !tbaa !3
  ret i32 %3
}

; Function Attrs: mustprogress nounwind willreturn uwtable
define void @Msat_ClauseVecGrow(ptr noundef captures(none) %0, i32 noundef %1) local_unnamed_addr #2 {
  %3 = getelementptr inbounds nuw i8, ptr %0, i64 12
  %4 = load i32, ptr %3, align 4, !tbaa !10
  %.not = icmp slt i32 %4, %1
  br i1 %.not, label %5, label %15

5:                                                ; preds = %2
  %6 = load ptr, ptr %0, align 8, !tbaa !11
  %.not9 = icmp eq ptr %6, null
  %7 = sext i32 %1 to i64
  %8 = shl nsw i64 %7, 3
  br i1 %.not9, label %11, label %9

9:                                                ; preds = %5
  %10 = tail call ptr @realloc(ptr noundef nonnull %6, i64 noundef %8) #12
  br label %13

11:                                               ; preds = %5
  %12 = tail call noalias ptr @malloc(i64 noundef %8) #10
  br label %13

13:                                               ; preds = %11, %9
  %14 = phi ptr [ %10, %9 ], [ %12, %11 ]
  store ptr %14, ptr %0, align 8, !tbaa !11
  store i32 %1, ptr %3, align 4, !tbaa !10
  br label %15

15:                                               ; preds = %2, %13
  ret void
}

; Function Attrs: mustprogress nounwind willreturn allockind("realloc") allocsize(1) memory(argmem: readwrite, inaccessiblemem: readwrite)
declare noalias noundef ptr @realloc(ptr allocptr noundef captures(none), i64 noundef) local_unnamed_addr #5

; Function Attrs: mustprogress nofree norecurse nosync nounwind willreturn memory(argmem: write) uwtable
define void @Msat_ClauseVecShrink(ptr noundef writeonly captures(none) initializes((8, 12)) %0, i32 noundef %1) local_unnamed_addr #6 {
  %3 = getelementptr inbounds nuw i8, ptr %0, i64 8
  store i32 %1, ptr %3, align 8, !tbaa !3
  ret void
}

; Function Attrs: mustprogress nofree norecurse nosync nounwind willreturn memory(argmem: write) uwtable
define void @Msat_ClauseVecClear(ptr noundef writeonly captures(none) initializes((8, 12)) %0) local_unnamed_addr #6 {
  %2 = getelementptr inbounds nuw i8, ptr %0, i64 8
  store i32 0, ptr %2, align 8, !tbaa !3
  ret void
}

; Function Attrs: mustprogress nounwind willreturn uwtable
define void @Msat_ClauseVecPush(ptr noundef captures(none) %0, ptr noundef %1) local_unnamed_addr #2 {
  %3 = getelementptr inbounds nuw i8, ptr %0, i64 8
  %4 = load i32, ptr %3, align 8, !tbaa !3
  %5 = getelementptr inbounds nuw i8, ptr %0, i64 12
  %6 = load i32, ptr %5, align 4, !tbaa !10
  %7 = icmp eq i32 %4, %6
  br i1 %7, label %8, label %.Msat_ClauseVecGrow.exit11_crit_edge

.Msat_ClauseVecGrow.exit11_crit_edge:             ; preds = %2
  %.pre = load ptr, ptr %0, align 8, !tbaa !11
  br label %Msat_ClauseVecGrow.exit11

8:                                                ; preds = %2
  %9 = icmp slt i32 %4, 16
  br i1 %9, label %10, label %17

10:                                               ; preds = %8
  %11 = load ptr, ptr %0, align 8, !tbaa !11
  %.not9.i = icmp eq ptr %11, null
  br i1 %.not9.i, label %14, label %12

12:                                               ; preds = %10
  %13 = tail call dereferenceable_or_null(128) ptr @realloc(ptr noundef nonnull %11, i64 noundef 128) #12
  br label %Msat_ClauseVecGrow.exit

14:                                               ; preds = %10
  %15 = tail call noalias dereferenceable_or_null(128) ptr @malloc(i64 noundef 128) #10
  br label %Msat_ClauseVecGrow.exit

Msat_ClauseVecGrow.exit:                          ; preds = %12, %14
  %16 = phi ptr [ %13, %12 ], [ %15, %14 ]
  store ptr %16, ptr %0, align 8, !tbaa !11
  store i32 16, ptr %5, align 4, !tbaa !10
  br label %Msat_ClauseVecGrow.exit11

17:                                               ; preds = %8
  %18 = shl nuw nsw i32 %4, 1
  %19 = load ptr, ptr %0, align 8, !tbaa !11
  %.not9.i10 = icmp eq ptr %19, null
  %20 = zext nneg i32 %18 to i64
  %21 = shl nuw nsw i64 %20, 3
  br i1 %.not9.i10, label %24, label %22

22:                                               ; preds = %17
  %23 = tail call ptr @realloc(ptr noundef nonnull %19, i64 noundef %21) #12
  br label %26

24:                                               ; preds = %17
  %25 = tail call noalias ptr @malloc(i64 noundef %21) #10
  br label %26

26:                                               ; preds = %24, %22
  %27 = phi ptr [ %23, %22 ], [ %25, %24 ]
  store ptr %27, ptr %0, align 8, !tbaa !11
  store i32 %18, ptr %5, align 4, !tbaa !10
  br label %Msat_ClauseVecGrow.exit11

Msat_ClauseVecGrow.exit11:                        ; preds = %.Msat_ClauseVecGrow.exit11_crit_edge, %26, %Msat_ClauseVecGrow.exit
  %28 = phi ptr [ %.pre, %.Msat_ClauseVecGrow.exit11_crit_edge ], [ %27, %26 ], [ %16, %Msat_ClauseVecGrow.exit ]
  %29 = load i32, ptr %3, align 8, !tbaa !3
  %30 = add nsw i32 %29, 1
  store i32 %30, ptr %3, align 8, !tbaa !3
  %31 = sext i32 %29 to i64
  %32 = getelementptr inbounds ptr, ptr %28, i64 %31
  store ptr %1, ptr %32, align 8, !tbaa !12
  ret void
}

; Function Attrs: mustprogress nofree norecurse nosync nounwind willreturn memory(read, argmem: readwrite, inaccessiblemem: none) uwtable
define ptr @Msat_ClauseVecPop(ptr noundef captures(none) %0) local_unnamed_addr #7 {
  %2 = load ptr, ptr %0, align 8, !tbaa !11
  %3 = getelementptr inbounds nuw i8, ptr %0, i64 8
  %4 = load i32, ptr %3, align 8, !tbaa !3
  %5 = add nsw i32 %4, -1
  store i32 %5, ptr %3, align 8, !tbaa !3
  %6 = sext i32 %5 to i64
  %7 = getelementptr inbounds ptr, ptr %2, i64 %6
  %8 = load ptr, ptr %7, align 8, !tbaa !12
  ret ptr %8
}

; Function Attrs: mustprogress nofree norecurse nosync nounwind willreturn memory(write, argmem: readwrite, inaccessiblemem: none) uwtable
define void @Msat_ClauseVecWriteEntry(ptr noundef readonly captures(none) %0, i32 noundef %1, ptr noundef %2) local_unnamed_addr #8 {
  %4 = load ptr, ptr %0, align 8, !tbaa !11
  %5 = sext i32 %1 to i64
  %6 = getelementptr inbounds ptr, ptr %4, i64 %5
  store ptr %2, ptr %6, align 8, !tbaa !12
  ret void
}

; Function Attrs: mustprogress nofree norecurse nosync nounwind willreturn memory(read, inaccessiblemem: none) uwtable
define ptr @Msat_ClauseVecReadEntry(ptr noundef readonly captures(none) %0, i32 noundef %1) local_unnamed_addr #9 {
  %3 = load ptr, ptr %0, align 8, !tbaa !11
  %4 = sext i32 %1 to i64
  %5 = getelementptr inbounds ptr, ptr %3, i64 %4
  %6 = load ptr, ptr %5, align 8, !tbaa !12
  ret ptr %6
}


!llvm.module.flags = !{!0, !1, !2}

!0 = !{i32 1, !"wchar_size", i32 4}
!1 = !{i32 8, !"PIC Level", i32 2}
!2 = !{i32 7, !"uwtable", i32 2}
!3 = !{!4, !9, i64 8}
!4 = !{!"Msat_ClauseVec_t_", !5, i64 0, !9, i64 8, !9, i64 12}
!5 = !{!"p2 _ZTS14Msat_Clause_t_", !6, i64 0}
!6 = !{!"any pointer", !7, i64 0}
!7 = !{!"omnipotent char", !8, i64 0}
!8 = !{!"Simple C/C++ TBAA"}
!9 = !{!"int", !7, i64 0}
!10 = !{!4, !9, i64 12}
!11 = !{!4, !5, i64 0}
!12 = !{!13, !13, i64 0}
!13 = !{!"p1 _ZTS14Msat_Clause_t_", !6, i64 0}
